BL51 BANKED LINKER/LOCATER V6.22                                                        02/25/2022  10:49:11  PAGE 1


BL51 BANKED LINKER/LOCATER V6.22, INVOKED BY:
C:\PROGRAM FILES (X86)\KEIL\C51\BIN\BL51.EXE STARTUP.obj, SHT11TEST.obj TO SHT11TEST RAMSIZE (256)


MEMORY MODEL: SMALL WITH FLOATING POINT ARITHMETIC


INPUT MODULES INCLUDED:
  STARTUP.obj (?C_STARTUP)
  SHT11TEST.obj (SHT11TEST)
  C:\PROGRAM FILES (X86)\KEIL\C51\LIB\C51FPS.LIB (?C?FPADD)
  C:\PROGRAM FILES (X86)\KEIL\C51\LIB\C51FPS.LIB (?C?FPMUL)
  C:\PROGRAM FILES (X86)\KEIL\C51\LIB\C51FPS.LIB (?C?FPCMP)
  C:\PROGRAM FILES (X86)\KEIL\C51\LIB\C51FPS.LIB (?C?FCAST)
  C:\PROGRAM FILES (X86)\KEIL\C51\LIB\C51FPS.LIB (?C?CASTF)
  C:\PROGRAM FILES (X86)\KEIL\C51\LIB\C51FPS.LIB (?C?FPGETOPN)
  C:\PROGRAM FILES (X86)\KEIL\C51\LIB\C51S.LIB (?C?CLDPTR)
  C:\PROGRAM FILES (X86)\KEIL\C51\LIB\C51S.LIB (?C?CSTPTR)
  C:\PROGRAM FILES (X86)\KEIL\C51\LIB\C51S.LIB (?C?CSTOPTR)
  C:\PROGRAM FILES (X86)\KEIL\C51\LIB\C51S.LIB (?C?UIDIV)
  C:\PROGRAM FILES (X86)\KEIL\C51\LIB\C51S.LIB (?C?LNEG)
  C:\PROGRAM FILES (X86)\KEIL\C51\LIB\C51S.LIB (?C?SLCMP)
  C:\PROGRAM FILES (X86)\KEIL\C51\LIB\C51S.LIB (?C?LLDPTR)
  C:\PROGRAM FILES (X86)\KEIL\C51\LIB\C51S.LIB (?C?LSTPTR)
  C:\PROGRAM FILES (X86)\KEIL\C51\LIB\C51S.LIB (?C?LLDIDATA)
  C:\PROGRAM FILES (X86)\KEIL\C51\LIB\C51S.LIB (?C?LLDXDATA)
  C:\PROGRAM FILES (X86)\KEIL\C51\LIB\C51S.LIB (?C?LLDPDATA)
  C:\PROGRAM FILES (X86)\KEIL\C51\LIB\C51S.LIB (?C?LLDCODE)
  C:\PROGRAM FILES (X86)\KEIL\C51\LIB\C51S.LIB (?C?LSTIDATA)
  C:\PROGRAM FILES (X86)\KEIL\C51\LIB\C51S.LIB (?C?LSTXDATA)
  C:\PROGRAM FILES (X86)\KEIL\C51\LIB\C51S.LIB (?C?LSTPDATA)


LINK MAP OF MODULE:  SHT11TEST (?C_STARTUP)


            TYPE    BASE      LENGTH    RELOCATION   SEGMENT NAME
            -----------------------------------------------------

            * * * * * * *   D A T A   M E M O R Y   * * * * * * *
            REG     0000H     0008H     ABSOLUTE     "REG BANK 0"
                    0008H     0018H                  *** GAP ***
            BIT     0020H.0   0000H.1   UNIT         _BIT_GROUP_
                    0020H.1   0000H.7                *** GAP ***
            DATA    0021H     0049H     UNIT         _DATA_GROUP_
            IDATA   006AH     0001H     UNIT         ?STACK

            * * * * * * *   C O D E   M E M O R Y   * * * * * * *
            CODE    0000H     0003H     ABSOLUTE     
            CODE    0003H     048EH     UNIT         ?C?LIB_CODE
            CODE    0491H     01CDH     UNIT         ?PR?MAIN?SHT11TEST
            CODE    065EH     0193H     UNIT         ?PR?_CALC_STH10?SHT11TEST
            CODE    07F1H     0088H     UNIT         ?PR?_S_MEASURE?SHT11TEST
            CODE    0879H     0032H     UNIT         ?PR?_S_WRITE_BYTE?SHT11TEST
            CODE    08ABH     0031H     UNIT         ?PR?_S_READ_BYTE?SHT11TEST
            CODE    08DCH     0024H     UNIT         ?PR?LCD_INITIAL?SHT11TEST
            CODE    0900H     0020H     UNIT         ?PR?_DELAY?SHT11TEST
            CODE    0920H     001FH     UNIT         ?PR?_GOTOXY?SHT11TEST
BL51 BANKED LINKER/LOCATER V6.22                                                      02/25/2022  10:49:11  PAGE 2


            CODE    093FH     001BH     UNIT         ?CO?SHT11TEST
            CODE    095AH     0019H     UNIT         ?PR?S_TRANSSTART?SHT11TEST
            CODE    0973H     0017H     UNIT         ?PR?_PRINT?SHT11TEST
            CODE    098AH     0016H     UNIT         ?PR?LCD_WRITE?SHT11TEST
            CODE    09A0H     0011H     UNIT         ?PR?S_CONNECTIONRESET?SHT11TEST
            CODE    09B1H     000EH     UNIT         ?PR?S_SOFTRESET?SHT11TEST
            CODE    09BFH     000DH     UNIT         ?PR?LCD_WAIT?SHT11TEST
            CODE    09CCH     000CH     UNIT         ?C_C51STARTUP
            CODE    09D8H     000AH     UNIT         ?PR?_LCD_SETDISPLAY?SHT11TEST
            CODE    09E2H     000AH     UNIT         ?PR?_LCD_SETINPUT?SHT11TEST



OVERLAY MAP OF MODULE:   SHT11TEST (?C_STARTUP)


SEGMENT                                    BIT_GROUP          DATA_GROUP 
  +--> CALLED SEGMENT                   START    LENGTH     START    LENGTH
---------------------------------------------------------------------------
?C_C51STARTUP                           -----    -----      -----    -----
  +--> ?PR?MAIN?SHT11TEST

?PR?MAIN?SHT11TEST                      -----    -----      0021H    001BH
  +--> ?PR?LCD_INITIAL?SHT11TEST
  +--> ?PR?_GOTOXY?SHT11TEST
  +--> ?CO?SHT11TEST
  +--> ?PR?_PRINT?SHT11TEST
  +--> ?PR?S_CONNECTIONRESET?SHT11TEST
  +--> ?PR?_S_MEASURE?SHT11TEST
  +--> ?PR?_CALC_STH10?SHT11TEST
  +--> ?PR?_DELAY?SHT11TEST

?PR?LCD_INITIAL?SHT11TEST               -----    -----      -----    -----
  +--> ?PR?LCD_WRITE?SHT11TEST
  +--> ?PR?_LCD_SETDISPLAY?SHT11TEST
  +--> ?PR?_LCD_SETINPUT?SHT11TEST

?PR?LCD_WRITE?SHT11TEST                 0020H.0  0000H.1    003CH    0001H
  +--> ?PR?LCD_WAIT?SHT11TEST

?PR?_LCD_SETDISPLAY?SHT11TEST           -----    -----      -----    -----
  +--> ?PR?LCD_WRITE?SHT11TEST

?PR?_LCD_SETINPUT?SHT11TEST             -----    -----      -----    -----
  +--> ?PR?LCD_WRITE?SHT11TEST

?PR?_GOTOXY?SHT11TEST                   -----    -----      -----    -----
  +--> ?PR?LCD_WRITE?SHT11TEST

?PR?_PRINT?SHT11TEST                    -----    -----      -----    -----
  +--> ?PR?LCD_WRITE?SHT11TEST

?PR?S_CONNECTIONRESET?SHT11TEST         -----    -----      -----    -----
  +--> ?PR?S_TRANSSTART?SHT11TEST

?PR?_S_MEASURE?SHT11TEST                -----    -----      003CH    0009H
  +--> ?PR?S_TRANSSTART?SHT11TEST
BL51 BANKED LINKER/LOCATER V6.22                                                      02/25/2022  10:49:11  PAGE 3


  +--> ?PR?_S_WRITE_BYTE?SHT11TEST
  +--> ?PR?_S_READ_BYTE?SHT11TEST

?PR?_CALC_STH10?SHT11TEST               -----    -----      003CH    002EH



SYMBOL TABLE OF MODULE:  SHT11TEST (?C_STARTUP)

  VALUE           TYPE          NAME
  ----------------------------------

  -------         MODULE        ?C_STARTUP
  C:09CCH         SEGMENT       ?C_C51STARTUP
  I:006AH         SEGMENT       ?STACK
  C:0000H         PUBLIC        ?C_STARTUP
  D:00E0H         SYMBOL        ACC
  D:00F0H         SYMBOL        B
  D:0083H         SYMBOL        DPH
  D:0082H         SYMBOL        DPL
  N:0000H         SYMBOL        IBPSTACK
  N:0100H         SYMBOL        IBPSTACKTOP
  N:0080H         SYMBOL        IDATALEN
  C:09CFH         SYMBOL        IDATALOOP
  N:0000H         SYMBOL        PBPSTACK
  N:0100H         SYMBOL        PBPSTACKTOP
  N:0000H         SYMBOL        PDATALEN
  N:0000H         SYMBOL        PDATASTART
  N:0000H         SYMBOL        PPAGE
  N:0000H         SYMBOL        PPAGEENABLE
  D:00A0H         SYMBOL        PPAGE_SFR
  D:0081H         SYMBOL        SP
  C:09CCH         SYMBOL        STARTUP1
  N:0000H         SYMBOL        XBPSTACK
  N:0000H         SYMBOL        XBPSTACKTOP
  N:0000H         SYMBOL        XDATALEN
  N:0000H         SYMBOL        XDATASTART
  C:0000H         LINE#         126
  C:09CCH         LINE#         133
  C:09CEH         LINE#         134
  C:09CFH         LINE#         135
  C:09D0H         LINE#         136
  C:09D2H         LINE#         185
  C:09D5H         LINE#         196
  -------         ENDMOD        ?C_STARTUP

  -------         MODULE        SHT11TEST
  C:0000H         SYMBOL        _ICE_DUMMY_
  D:0090H         PUBLIC        P1
  D:00A0H         PUBLIC        P2
  C:08DCH         PUBLIC        LCD_Initial
  D:00B0H         PUBLIC        P3
  C:08ABH         PUBLIC        _s_read_byte
  D:00A8H         PUBLIC        IE
  C:0973H         PUBLIC        _Print
  C:0900H         PUBLIC        _delay
  C:0879H         PUBLIC        _s_write_byte
BL51 BANKED LINKER/LOCATER V6.22                                                      02/25/2022  10:49:11  PAGE 4


  D:00B8H         PUBLIC        IP
  B:0090H.1       PUBLIC        DATA
  B:00A0H.0       PUBLIC        RS
  C:0491H         PUBLIC        main
  C:065EH         PUBLIC        _calc_sth10
  B:00A0H.1       PUBLIC        RW
  D:0080H         PUBLIC        DBPort
  C:095AH         PUBLIC        s_transstart
  C:09A0H         PUBLIC        s_connectionreset
  D:0098H         PUBLIC        SCON
  D:0088H         PUBLIC        TCON
  C:09B1H         PUBLIC        s_softreset
  C:09D8H         PUBLIC        _LCD_SetDisplay
  C:098AH         PUBLIC        LCD_Write
  B:00A0H.2       PUBLIC        E
  C:07F1H         PUBLIC        _s_measure
  C:09BFH         PUBLIC        LCD_Wait
  C:0920H         PUBLIC        _GotoXY
  B:0090H.0       PUBLIC        SCK
  D:00C8H         PUBLIC        T2CON
  C:09E2H         PUBLIC        _LCD_SetInput
  D:00D0H         PUBLIC        PSW
  -------         PROC          _S_WRITE_BYTE
  D:0007H         SYMBOL        value
  -------         DO            
  D:0005H         SYMBOL        i
  D:0006H         SYMBOL        error
  -------         ENDDO         
  C:0879H         LINE#         62
  C:0879H         LINE#         63
  C:0879H         LINE#         64
  C:087BH         LINE#         65
  C:0883H         LINE#         66
  C:0883H         LINE#         67
  C:088BH         LINE#         68
  C:088DH         LINE#         69
  C:088FH         LINE#         70
  C:0892H         LINE#         71
  C:0894H         LINE#         72
  C:089AH         LINE#         73
  C:089CH         LINE#         74
  C:089EH         LINE#         75
  C:08A2H         LINE#         76
  C:08A5H         LINE#         77
  C:08A7H         LINE#         78
  C:08A9H         LINE#         79
  C:08AAH         LINE#         80
  -------         ENDPROC       _S_WRITE_BYTE
  -------         PROC          _S_READ_BYTE
  D:0007H         SYMBOL        ack
  -------         DO            
  D:0005H         SYMBOL        i
  D:0006H         SYMBOL        val
  -------         ENDDO         
  C:08ABH         LINE#         83
  C:08ABH         LINE#         85
  C:08ABH         LINE#         86
BL51 BANKED LINKER/LOCATER V6.22                                                      02/25/2022  10:49:11  PAGE 5


  C:08ADH         LINE#         87
  C:08AFH         LINE#         88
  C:08B7H         LINE#         89
  C:08B7H         LINE#         90
  C:08B9H         LINE#         91
  C:08BFH         LINE#         92
  C:08C1H         LINE#         93
  C:08C7H         LINE#         94
  C:08CDH         LINE#         95
  C:08CFH         LINE#         96
  C:08D2H         LINE#         97
  C:08D4H         LINE#         98
  C:08D7H         LINE#         99
  C:08D9H         LINE#         100
  C:08DBH         LINE#         101
  -------         ENDPROC       _S_READ_BYTE
  -------         PROC          S_TRANSSTART
  C:095AH         LINE#         104
  C:095AH         LINE#         110
  C:095AH         LINE#         111
  C:095EH         LINE#         112
  C:095FH         LINE#         113
  C:0961H         LINE#         114
  C:0962H         LINE#         115
  C:0964H         LINE#         116
  C:0965H         LINE#         117
  C:0967H         LINE#         118
  C:096AH         LINE#         119
  C:096CH         LINE#         120
  C:096DH         LINE#         121
  C:096FH         LINE#         122
  C:0970H         LINE#         123
  C:0972H         LINE#         124
  -------         ENDPROC       S_TRANSSTART
  -------         PROC          S_CONNECTIONRESET
  -------         DO            
  D:0007H         SYMBOL        i
  -------         ENDDO         
  C:09A0H         LINE#         128
  C:09A0H         LINE#         134
  C:09A0H         LINE#         136
  C:09A4H         LINE#         137
  C:09A6H         LINE#         138
  C:09A6H         LINE#         139
  C:09A8H         LINE#         140
  C:09AAH         LINE#         141
  C:09AEH         LINE#         142
  -------         ENDPROC       S_CONNECTIONRESET
  -------         PROC          S_SOFTRESET
  -------         DO            
  D:0004H         SYMBOL        error
  -------         ENDDO         
  C:09B1H         LINE#         147
  C:09B1H         LINE#         149
  C:09B1H         LINE#         150
  C:09B3H         LINE#         151
  C:09B6H         LINE#         152
BL51 BANKED LINKER/LOCATER V6.22                                                      02/25/2022  10:49:11  PAGE 6


  C:09BDH         LINE#         153
  C:09BEH         LINE#         154
  -------         ENDPROC       S_SOFTRESET
  -------         PROC          _S_MEASURE
  D:003CH         SYMBOL        p_value
  D:003FH         SYMBOL        p_checksum
  D:0042H         SYMBOL        mode
  -------         DO            
  D:0043H         SYMBOL        error
  D:0082H         SYMBOL        i
  -------         ENDDO         
  C:07F1H         LINE#         184
  C:07F7H         LINE#         186
  C:07F7H         LINE#         188
  C:07FCH         LINE#         191
  C:07FFH         LINE#         192
  C:0807H         LINE#         193
  C:0807H         LINE#         194
  C:080BH         LINE#         195
  C:081FH         LINE#         196
  C:081FH         LINE#         197
  C:081FH         LINE#         198
  C:083BH         LINE#         199
  C:0846H         LINE#         200
  C:0855H         LINE#         201
  C:0867H         LINE#         202
  C:0876H         LINE#         203
  C:0878H         LINE#         204
  -------         ENDPROC       _S_MEASURE
  -------         PROC          _CALC_STH10
  D:003CH         SYMBOL        p_humidity
  D:003FH         SYMBOL        p_temperature
  -------         DO            
  D:0042H         SYMBOL        C1
  D:0046H         SYMBOL        C2
  D:004AH         SYMBOL        C3
  D:004EH         SYMBOL        T1
  D:0052H         SYMBOL        T2
  D:0056H         SYMBOL        rh
  D:005AH         SYMBOL        t
  D:005EH         SYMBOL        rh_lin
  D:0062H         SYMBOL        rh_true
  D:0066H         SYMBOL        t_C
  -------         ENDDO         
  C:065EH         LINE#         207
  C:0664H         LINE#         208
  C:0664H         LINE#         209
  C:066FH         LINE#         210
  C:067BH         LINE#         211
  C:0687H         LINE#         212
  C:0693H         LINE#         213
  C:069FH         LINE#         215
  C:06AAH         LINE#         216
  C:06BBH         LINE#         221
  C:06E0H         LINE#         222
  C:0737H         LINE#         223
  C:078DH         LINE#         224
BL51 BANKED LINKER/LOCATER V6.22                                                      02/25/2022  10:49:11  PAGE 7


  C:07AEH         LINE#         225
  C:07CFH         LINE#         227
  C:07E0H         LINE#         228
  -------         ENDPROC       _CALC_STH10
  -------         PROC          LCD_WAIT
  C:09BFH         LINE#         245
  C:09BFH         LINE#         246
  C:09BFH         LINE#         247
  C:09C1H         LINE#         248
  C:09C4H         LINE#         249
  C:09C7H         LINE#         250
  C:09C9H         LINE#         251
  C:09CBH         LINE#         252
  -------         ENDPROC       LCD_WAIT
  -------         PROC          LCD_WRITE
  B:0020H.0       SYMBOL        style
  D:003CH         SYMBOL        input
  C:098AH         LINE#         258
  C:098AH         LINE#         259
  C:098AH         LINE#         260
  C:098CH         LINE#         261
  C:0990H         LINE#         262
  C:0993H         LINE#         263
  C:0997H         LINE#         264
  C:099AH         LINE#         265
  C:099DH         LINE#         266
  -------         ENDPROC       LCD_WRITE
  -------         PROC          _LCD_SETDISPLAY
  D:0007H         SYMBOL        DisplayMode
  C:09D8H         LINE#         279
  C:09D8H         LINE#         280
  C:09D8H         LINE#         281
  -------         ENDPROC       _LCD_SETDISPLAY
  -------         PROC          _LCD_SETINPUT
  D:0007H         SYMBOL        InputMode
  C:09E2H         LINE#         291
  C:09E2H         LINE#         292
  C:09E2H         LINE#         293
  -------         ENDPROC       _LCD_SETINPUT
  -------         PROC          LCD_INITIAL
  C:08DCH         LINE#         297
  C:08DCH         LINE#         298
  C:08DCH         LINE#         299
  C:08DEH         LINE#         300
  C:08E6H         LINE#         301
  C:08EEH         LINE#         302
  C:08F3H         LINE#         303
  C:08FBH         LINE#         304
  -------         ENDPROC       LCD_INITIAL
  -------         PROC          _GOTOXY
  D:0006H         SYMBOL        x
  D:0005H         SYMBOL        y
  C:0920H         LINE#         308
  C:0922H         LINE#         309
  C:0922H         LINE#         310
  C:0925H         LINE#         311
  C:092FH         LINE#         312
BL51 BANKED LINKER/LOCATER V6.22                                                      02/25/2022  10:49:11  PAGE 8


  C:0932H         LINE#         313
  C:093EH         LINE#         314
  -------         ENDPROC       _GOTOXY
  -------         PROC          _PRINT
  D:0001H         SYMBOL        str
  C:0973H         LINE#         317
  C:0973H         LINE#         318
  C:0973H         LINE#         319
  C:0979H         LINE#         320
  C:0979H         LINE#         321
  C:0980H         LINE#         322
  C:0987H         LINE#         323
  C:0989H         LINE#         324
  -------         ENDPROC       _PRINT
  -------         PROC          _DELAY
  D:0006H         SYMBOL        z
  -------         DO            
  D:0006H         SYMBOL        x
  D:0004H         SYMBOL        y
  -------         ENDDO         
  C:0900H         LINE#         329
  C:0900H         LINE#         330
  C:0900H         LINE#         332
  C:090BH         LINE#         333
  C:091FH         LINE#         334
  -------         ENDPROC       _DELAY
  -------         PROC          MAIN
  -------         DO            
  D:0021H         SYMBOL        temp
  D:0023H         SYMBOL        humi
  D:0025H         SYMBOL        humi_val
  D:0029H         SYMBOL        temp_val
  D:002DH         SYMBOL        error
  D:002EH         SYMBOL        checksum
  D:002FH         SYMBOL        TEMP1
  D:0036H         SYMBOL        HUMI1
  -------         ENDDO         
  C:0491H         LINE#         339
  C:0491H         LINE#         340
  C:0491H         LINE#         350
  C:0494H         LINE#         351
  C:049AH         LINE#         352
  C:04A3H         LINE#         353
  C:04A9H         LINE#         354
  C:04B0H         LINE#         355
  C:04B3H         LINE#         357
  C:04B3H         LINE#         358
  C:04B3H         LINE#         359
  C:04B6H         LINE#         360
  C:04CDH         LINE#         361
  C:04E7H         LINE#         362
  C:04EFH         LINE#         364
  C:04EFH         LINE#         365
  C:04FFH         LINE#         366
  C:050FH         LINE#         367
  C:0521H         LINE#         369
  C:053AH         LINE#         370
BL51 BANKED LINKER/LOCATER V6.22                                                      02/25/2022  10:49:11  PAGE 9


  C:0553H         LINE#         371
  C:055AH         LINE#         372
  C:056AH         LINE#         373
  C:0570H         LINE#         374
  C:058DH         LINE#         375
  C:0599H         LINE#         376
  C:05B6H         LINE#         377
  C:05B9H         LINE#         378
  C:05C9H         LINE#         379
  C:05CCH         LINE#         380
  C:05D5H         LINE#         381
  C:05DCH         LINE#         382
  C:05ECH         LINE#         383
  C:05F2H         LINE#         384
  C:060FH         LINE#         385
  C:061BH         LINE#         386
  C:0638H         LINE#         387
  C:063BH         LINE#         388
  C:064BH         LINE#         389
  C:0654H         LINE#         390
  C:0654H         LINE#         391
  C:065BH         LINE#         392
  -------         ENDPROC       MAIN
  -------         ENDMOD        SHT11TEST

  -------         MODULE        ?C?FPADD
  C:000AH         PUBLIC        ?C?FPADD
  C:0006H         PUBLIC        ?C?FPSUB
  -------         ENDMOD        ?C?FPADD

  -------         MODULE        ?C?FPMUL
  C:00FBH         PUBLIC        ?C?FPMUL
  -------         ENDMOD        ?C?FPMUL

  -------         MODULE        ?C?FPCMP
  C:0203H         PUBLIC        ?C?FPCMP
  C:0201H         PUBLIC        ?C?FPCMP3
  -------         ENDMOD        ?C?FPCMP

  -------         MODULE        ?C?FCAST
  C:0284H         PUBLIC        ?C?FCASTC
  C:027FH         PUBLIC        ?C?FCASTI
  C:027AH         PUBLIC        ?C?FCASTL
  -------         ENDMOD        ?C?FCAST

  -------         MODULE        ?C?CASTF
  C:02B8H         PUBLIC        ?C?CASTF
  -------         ENDMOD        ?C?CASTF

  -------         MODULE        ?C?CLDPTR
  C:0339H         PUBLIC        ?C?CLDPTR
  -------         ENDMOD        ?C?CLDPTR

  -------         MODULE        ?C?CSTPTR
  C:0352H         PUBLIC        ?C?CSTPTR
  -------         ENDMOD        ?C?CSTPTR

BL51 BANKED LINKER/LOCATER V6.22                                                      02/25/2022  10:49:11  PAGE 10


  -------         MODULE        ?C?CSTOPTR
  C:0364H         PUBLIC        ?C?CSTOPTR
  -------         ENDMOD        ?C?CSTOPTR

  -------         MODULE        ?C?UIDIV
  C:0386H         PUBLIC        ?C?UIDIV
  -------         ENDMOD        ?C?UIDIV

  -------         MODULE        ?C?LNEG
  C:03DBH         PUBLIC        ?C?LNEG
  -------         ENDMOD        ?C?LNEG

  -------         MODULE        ?C?SLCMP
  C:03E9H         PUBLIC        ?C?SLCMP
  -------         ENDMOD        ?C?SLCMP

  -------         MODULE        ?C?LLDPTR
  C:03FFH         PUBLIC        ?C?LLDPTR
  -------         ENDMOD        ?C?LLDPTR

  -------         MODULE        ?C?LSTPTR
  C:041FH         PUBLIC        ?C?LSTPTR
  -------         ENDMOD        ?C?LSTPTR

  -------         MODULE        ?C?LLDIDATA
  C:0439H         PUBLIC        ?C?LLDIDATA
  -------         ENDMOD        ?C?LLDIDATA

  -------         MODULE        ?C?LLDXDATA
  C:0445H         PUBLIC        ?C?LLDXDATA
  -------         ENDMOD        ?C?LLDXDATA

  -------         MODULE        ?C?LLDPDATA
  C:0451H         PUBLIC        ?C?LLDPDATA
  -------         ENDMOD        ?C?LLDPDATA

  -------         MODULE        ?C?LLDCODE
  C:045DH         PUBLIC        ?C?LLDCODE
  -------         ENDMOD        ?C?LLDCODE

  -------         MODULE        ?C?LSTIDATA
  C:046DH         PUBLIC        ?C?LSTIDATA
  -------         ENDMOD        ?C?LSTIDATA

  -------         MODULE        ?C?LSTXDATA
  C:0479H         PUBLIC        ?C?LSTXDATA
  -------         ENDMOD        ?C?LSTXDATA

  -------         MODULE        ?C?LSTPDATA
  C:0485H         PUBLIC        ?C?LSTPDATA
  -------         ENDMOD        ?C?LSTPDATA

*** WARNING L16: UNCALLED SEGMENT, IGNORED FOR OVERLAY PROCESS
    SEGMENT: ?PR?S_SOFTRESET?SHT11TEST

Program Size: data=82.1 xdata=0 code=2540
LINK/LOCATE RUN COMPLETE.  1 WARNING(S),  0 ERROR(S)
